target datalayout = "e-m:e-p270:32:32-p271:32:32-p272:64:64-i64:64-i128:128-f80:128-n8:16:32:64-S128"
target triple = "x86_64-pc-linux-gnu"

%struct._lv_textarea_t = type { %struct._lv_obj_t, ptr, ptr, ptr, ptr, ptr, i32, i32, %struct.anon, i32, i32, i8 }
%struct._lv_obj_t = type { ptr, ptr, ptr, ptr, ptr, %struct.lv_area_t, i32, i16, i16 }
%struct.lv_area_t = type { i32, i32, i32, i32 }
%struct.anon = type { i32, i32, %struct.lv_area_t, i32, i8 }
%union.lv_style_value_t = type { ptr }
%struct.lv_font_glyph_dsc_t = type { ptr, i16, i16, i16, i16, i16, i32, i8, %union.anon, ptr }
%union.anon = type { ptr }

@lv_text_get_encoded_length = external constant ptr, align 8
@.str.2 = private unnamed_addr constant [4 x i8] c"\E2\80\A2\00", align 1
@.str.3 = private unnamed_addr constant [2 x i8] c"*\00", align 1

; Function Attrs: inlinehint nounwind uwtable
define internal ptr @lv_obj_get_style_text_font(ptr noundef %0, i32 noundef %1) #4 {
  %3 = alloca ptr, align 8
  %4 = alloca i32, align 4
  %5 = alloca %union.lv_style_value_t, align 8
  store ptr %0, ptr %3, align 8, !tbaa !8
  store i32 %1, ptr %4, align 4, !tbaa !32
  call void @llvm.lifetime.start.p0(i64 8, ptr %5) #6
  %6 = load ptr, ptr %3, align 8, !tbaa !8
  %7 = load i32, ptr %4, align 4, !tbaa !32
  %8 = call ptr @lv_obj_get_style_prop(ptr noundef %6, i32 noundef %7, i8 noundef zeroext 90)
  %9 = getelementptr inbounds nuw %union.lv_style_value_t, ptr %5, i32 0, i32 0
  store ptr %8, ptr %9, align 8
  %10 = load ptr, ptr %5, align 8, !tbaa !35
  call void @llvm.lifetime.end.p0(i64 8, ptr %5) #6
  ret ptr %10
}

; Function Attrs: nounwind uwtable
define internal void @auto_hide_characters_cancel(ptr noundef %0) #0 {
  %2 = alloca ptr, align 8
  store ptr %0, ptr %2, align 8, !tbaa !8
  %3 = load ptr, ptr %2, align 8, !tbaa !8
  %4 = call zeroext i1 @lv_anim_delete(ptr noundef %3, ptr noundef @pwd_char_hider_anim)
  ret void
}

; Function Attrs: nounwind uwtable
define ptr @lv_textarea_get_password_bullet(ptr noundef %0) #0 {
  %2 = alloca ptr, align 8
  %3 = alloca ptr, align 8
  %4 = alloca ptr, align 8
  %5 = alloca i32, align 4
  %6 = alloca %struct.lv_font_glyph_dsc_t, align 8
  %7 = alloca ptr, align 8
  store ptr %0, ptr %3, align 8, !tbaa !8
  br label %8

8:                                                ; preds = %1
  %9 = load ptr, ptr %3, align 8, !tbaa !8
  %10 = icmp ne ptr %9, null
  br i1 %10, label %15, label %11

11:                                               ; preds = %8
  br label %12

12:                                               ; preds = %11
  br label %13

13:                                               ; preds = %12
  br label %14

14:                                               ; preds = %13, %14
  br label %14

15:                                               ; preds = %8
  br label %16

16:                                               ; preds = %15
  call void @llvm.lifetime.start.p0(i64 8, ptr %4) #6
  %17 = load ptr, ptr %3, align 8, !tbaa !8
  store ptr %17, ptr %4, align 8, !tbaa !10
  %18 = load ptr, ptr %4, align 8, !tbaa !10
  %19 = getelementptr inbounds nuw %struct._lv_textarea_t, ptr %18, i32 0, i32 4
  %20 = load ptr, ptr %19, align 8, !tbaa !22
  %21 = icmp ne ptr %20, null
  br i1 %21, label %22, label %26

22:                                               ; preds = %16
  %23 = load ptr, ptr %4, align 8, !tbaa !10
  %24 = getelementptr inbounds nuw %struct._lv_textarea_t, ptr %23, i32 0, i32 4
  %25 = load ptr, ptr %24, align 8, !tbaa !22
  store ptr %25, ptr %2, align 8
  store i32 1, ptr %5, align 4
  br label %34

26:                                               ; preds = %16
  call void @llvm.lifetime.start.p0(i64 48, ptr %6) #6
  call void @llvm.lifetime.start.p0(i64 8, ptr %7) #6
  %27 = load ptr, ptr %3, align 8, !tbaa !8
  %28 = call ptr @lv_obj_get_style_text_font(ptr noundef %27, i32 noundef 0)
  store ptr %28, ptr %7, align 8, !tbaa !41
  %29 = load ptr, ptr %7, align 8, !tbaa !41
  %30 = call zeroext i1 @lv_font_get_glyph_dsc(ptr noundef %29, ptr noundef %6, i32 noundef 8226, i32 noundef 0)
  br i1 %30, label %31, label %32

31:                                               ; preds = %26
  store ptr @.str.2, ptr %2, align 8
  store i32 1, ptr %5, align 4
  br label %33

32:                                               ; preds = %26
  store ptr @.str.3, ptr %2, align 8
  store i32 1, ptr %5, align 4
  br label %33

33:                                               ; preds = %32, %31
  call void @llvm.lifetime.end.p0(i64 8, ptr %7) #6
  call void @llvm.lifetime.end.p0(i64 48, ptr %6) #6
  br label %34

34:                                               ; preds = %33, %22
  call void @llvm.lifetime.end.p0(i64 8, ptr %4) #6
  %35 = load ptr, ptr %2, align 8
  ret ptr %35
}

; Function Attrs: nounwind uwtable
define internal void @pwd_char_hider(ptr noundef %0) #0 {
  %2 = alloca ptr, align 8
  %3 = alloca ptr, align 8
  %4 = alloca i32, align 4
  %5 = alloca ptr, align 8
  %6 = alloca i32, align 4
  %7 = alloca ptr, align 8
  %8 = alloca i64, align 8
  %9 = alloca ptr, align 8
  %10 = alloca i32, align 4
  store ptr %0, ptr %2, align 8, !tbaa !8
  call void @llvm.lifetime.start.p0(i64 8, ptr %3) #6
  %11 = load ptr, ptr %2, align 8, !tbaa !8
  store ptr %11, ptr %3, align 8, !tbaa !10
  %12 = load ptr, ptr %3, align 8, !tbaa !10
  %13 = getelementptr inbounds nuw %struct._lv_textarea_t, ptr %12, i32 0, i32 11
  %14 = load i8, ptr %13, align 8
  %15 = lshr i8 %14, 2
  %16 = and i8 %15, 1
  %17 = zext i8 %16 to i32
  %18 = icmp eq i32 %17, 0
  br i1 %18, label %19, label %20

19:                                               ; preds = %1
  store i32 1, ptr %4, align 4
  br label %74

20:                                               ; preds = %1
  call void @llvm.lifetime.start.p0(i64 8, ptr %5) #6
  %21 = load ptr, ptr %3, align 8, !tbaa !10
  %22 = getelementptr inbounds nuw %struct._lv_textarea_t, ptr %21, i32 0, i32 1
  %23 = load ptr, ptr %22, align 8, !tbaa !28
  %24 = call ptr @lv_label_get_text(ptr noundef %23)
  store ptr %24, ptr %5, align 8, !tbaa !33
  call void @llvm.lifetime.start.p0(i64 4, ptr %6) #6
  %25 = load ptr, ptr @lv_text_get_encoded_length, align 8, !tbaa !34
  %26 = load ptr, ptr %5, align 8, !tbaa !33
  %27 = call i32 %25(ptr noundef %26)
  store i32 %27, ptr %6, align 4, !tbaa !32
  %28 = load i32, ptr %6, align 4, !tbaa !32
  %29 = icmp eq i32 %28, 0
  br i1 %29, label %30, label %31

30:                                               ; preds = %20
  store i32 1, ptr %4, align 4
  br label %73

31:                                               ; preds = %20
  call void @llvm.lifetime.start.p0(i64 8, ptr %7) #6
  %32 = load ptr, ptr %2, align 8, !tbaa !8
  %33 = call ptr @lv_textarea_get_password_bullet(ptr noundef %32)
  store ptr %33, ptr %7, align 8, !tbaa !33
  call void @llvm.lifetime.start.p0(i64 8, ptr %8) #6
  %34 = load ptr, ptr %7, align 8, !tbaa !33
  %35 = call i64 @lv_strlen(ptr noundef %34)
  store i64 %35, ptr %8, align 8, !tbaa !36
  call void @llvm.lifetime.start.p0(i64 8, ptr %9) #6
  %36 = load i32, ptr %6, align 4, !tbaa !32
  %37 = zext i32 %36 to i64
  %38 = load i64, ptr %8, align 8, !tbaa !36
  %39 = mul i64 %37, %38
  %40 = add i64 %39, 1
  %41 = call ptr @lv_malloc(i64 noundef %40)
  store ptr %41, ptr %9, align 8, !tbaa !33
  call void @llvm.lifetime.start.p0(i64 4, ptr %10) #6
  store i32 0, ptr %10, align 4, !tbaa !32
  br label %42

42:                                               ; preds = %56, %31
  %43 = load i32, ptr %10, align 4, !tbaa !32
  %44 = load i32, ptr %6, align 4, !tbaa !32
  %45 = icmp ult i32 %43, %44
  br i1 %45, label %46, label %59

46:                                               ; preds = %42
  %47 = load ptr, ptr %9, align 8, !tbaa !33
  %48 = load i32, ptr %10, align 4, !tbaa !32
  %49 = zext i32 %48 to i64
  %50 = load i64, ptr %8, align 8, !tbaa !36
  %51 = mul i64 %49, %50
  %52 = getelementptr inbounds nuw i8, ptr %47, i64 %51
  %53 = load ptr, ptr %7, align 8, !tbaa !33
  %54 = load i64, ptr %8, align 8, !tbaa !36
  %55 = call ptr @lv_memcpy(ptr noundef %52, ptr noundef %53, i64 noundef %54)
  br label %56

56:                                               ; preds = %46
  %57 = load i32, ptr %10, align 4, !tbaa !32
  %58 = add i32 %57, 1
  store i32 %58, ptr %10, align 4, !tbaa !32
  br label %42, !llvm.loop !40

59:                                               ; preds = %42
  %60 = load ptr, ptr %9, align 8, !tbaa !33
  %61 = load i32, ptr %10, align 4, !tbaa !32
  %62 = zext i32 %61 to i64
  %63 = load i64, ptr %8, align 8, !tbaa !36
  %64 = mul i64 %62, %63
  %65 = getelementptr inbounds nuw i8, ptr %60, i64 %64
  store i8 0, ptr %65, align 1, !tbaa !35
  %66 = load ptr, ptr %3, align 8, !tbaa !10
  %67 = getelementptr inbounds nuw %struct._lv_textarea_t, ptr %66, i32 0, i32 1
  %68 = load ptr, ptr %67, align 8, !tbaa !28
  %69 = load ptr, ptr %9, align 8, !tbaa !33
  call void @lv_label_set_text(ptr noundef %68, ptr noundef %69)
  %70 = load ptr, ptr %9, align 8, !tbaa !33
  call void @lv_free(ptr noundef %70)
  %71 = load ptr, ptr %2, align 8, !tbaa !8
  call void @auto_hide_characters_cancel(ptr noundef %71)
  %72 = load ptr, ptr %2, align 8, !tbaa !8
  call void @refr_cursor_area(ptr noundef %72)
  call void @llvm.lifetime.end.p0(i64 4, ptr %10) #6
  call void @llvm.lifetime.end.p0(i64 8, ptr %9) #6
  call void @llvm.lifetime.end.p0(i64 8, ptr %8) #6
  call void @llvm.lifetime.end.p0(i64 8, ptr %7) #6
  store i32 0, ptr %4, align 4
  br label %73

73:                                               ; preds = %59, %30
  call void @llvm.lifetime.end.p0(i64 4, ptr %6) #6
  call void @llvm.lifetime.end.p0(i64 8, ptr %5) #6
  br label %74

74:                                               ; preds = %73, %19
  call void @llvm.lifetime.end.p0(i64 8, ptr %3) #6
  %75 = load i32, ptr %4, align 4
  switch i32 %75, label %77 [
    i32 0, label %76
    i32 1, label %76
  ]

76:                                               ; preds = %74, %74
  ret void

77:                                               ; preds = %74
  unreachable
}