; Function Attrs: nounwind uwtable
define internal fastcc void @pwd_char_hider(ptr noundef %0) unnamed_addr #0 {
  %2 = alloca %struct.lv_font_glyph_dsc_t, align 8
  %3 = getelementptr inbounds nuw i8, ptr %0, i64 152
  %4 = load i8, ptr %3, align 8
  %5 = and i8 %4, 4
  %6 = icmp eq i8 %5, 0
  br i1 %6, label %34, label %7

7:                                                ; preds = %1
  %8 = getelementptr inbounds nuw i8, ptr %0, i64 64
  %9 = load ptr, ptr %8, align 8, !tbaa !22
  %10 = tail call ptr @lv_label_get_text(ptr noundef %9) #10
  %11 = load ptr, ptr @lv_text_get_encoded_length, align 8, !tbaa !57
  %12 = tail call i32 %11(ptr noundef %10) #10
  %13 = icmp eq i32 %12, 0
  br i1 %13, label %34, label %14

14:                                               ; preds = %7
  %15 = getelementptr inbounds nuw i8, ptr %0, i64 88
  %16 = load ptr, ptr %15, align 8, !tbaa !24
  %.not9.i = icmp eq ptr %16, null
  br i1 %.not9.i, label %17, label %lv_textarea_get_password_bullet.exit

17:                                               ; preds = %14
  call void @llvm.lifetime.start.p0(i64 48, ptr nonnull %2) #10
  %18 = tail call ptr @lv_obj_get_style_prop(ptr noundef nonnull %0, i32 noundef 0, i8 noundef zeroext 90) #10
  %19 = call zeroext i1 @lv_font_get_glyph_dsc(ptr noundef %18, ptr noundef nonnull %2, i32 noundef 8226, i32 noundef 0) #10
  %.str.2..str.3.i = select i1 %19, ptr @.str.2, ptr @.str.3
  call void @llvm.lifetime.end.p0(i64 48, ptr nonnull %2) #10
  br label %lv_textarea_get_password_bullet.exit

lv_textarea_get_password_bullet.exit:             ; preds = %14, %17
  %.0.i = phi ptr [ %.str.2..str.3.i, %17 ], [ %16, %14 ]
  %20 = call i64 @lv_strlen(ptr noundef nonnull %.0.i) #10
  %21 = zext i32 %12 to i64
  %22 = mul i64 %20, %21
  %23 = add i64 %22, 1
  %24 = call ptr @lv_malloc(i64 noundef %23) #10
  %wide.trip.count = zext i32 %12 to i64
  br label %25

25:                                               ; preds = %lv_textarea_get_password_bullet.exit, %25
  %indvars.iv = phi i64 [ 0, %lv_textarea_get_password_bullet.exit ], [ %indvars.iv.next, %25 ]
  %26 = mul i64 %20, %indvars.iv
  %27 = getelementptr inbounds nuw i8, ptr %24, i64 %26
  %28 = call ptr @lv_memcpy(ptr noundef %27, ptr noundef nonnull %.0.i, i64 noundef %20) #10
  %indvars.iv.next = add nuw nsw i64 %indvars.iv, 1
  %exitcond.not = icmp eq i64 %indvars.iv.next, %wide.trip.count
  br i1 %exitcond.not, label %29, label %25, !llvm.loop !62

29:                                               ; preds = %25
  %30 = mul i64 %20, %wide.trip.count
  %31 = getelementptr inbounds nuw i8, ptr %24, i64 %30
  store i8 0, ptr %31, align 1, !tbaa !38
  %32 = load ptr, ptr %8, align 8, !tbaa !22
  call void @lv_label_set_text(ptr noundef %32, ptr noundef %24) #10
  call void @lv_free(ptr noundef %24) #10
  %33 = call zeroext i1 @lv_anim_delete(ptr noundef %0, ptr noundef nonnull @pwd_char_hider_anim) #10
  call fastcc void @refr_cursor_area(ptr noundef %0)
  br label %34

34:                                               ; preds = %29, %7, %1
  ret void
}